	.file	"date.c"
	.text
.Ltext0:
	.section	.rodata
.LC0:
	.string	"Too many arguments!\n"
	.align 4
.LC1:
	.string	"Year:%d, Month:%d,Day:%d Time %d-%d-%d\n"
	.text
	.globl	main
	.type	main, @function
main:
.LFB0:
	.file 1 "date.c"
	.loc 1 11 0
	.cfi_startproc
.LVL0:
	pushl	%ebp
.LCFI0:
	.cfi_def_cfa_offset 8
	.cfi_offset 5, -8
	movl	%esp, %ebp
.LCFI1:
	.cfi_def_cfa_register 5
	pushl	%edi
	pushl	%esi
	pushl	%ebx
	andl	$-16, %esp
	subl	$64, %esp
	.cfi_offset 7, -12
	.cfi_offset 6, -16
	.cfi_offset 3, -20
	.loc 1 14 0
	cmpl	$1, 8(%ebp)
	jle	.L2
	.loc 1 15 0
	movl	$.LC0, 4(%esp)
	movl	$1, (%esp)
	call	printf
.LVL1:
	jmp	.L3
.L2:
	.loc 1 18 0
	leal	40(%esp), %eax
	movl	%eax, (%esp)
	call	date
.LVL2:
	.loc 1 19 0
	movl	40(%esp), %edi
	movl	44(%esp), %esi
	movl	48(%esp), %ebx
	movl	52(%esp), %ecx
	movl	56(%esp), %edx
	movl	60(%esp), %eax
	movl	%edi, 28(%esp)
	movl	%esi, 24(%esp)
	movl	%ebx, 20(%esp)
	movl	%ecx, 16(%esp)
	movl	%edx, 12(%esp)
	movl	%eax, 8(%esp)
	movl	$.LC1, 4(%esp)
	movl	$1, (%esp)
	call	printf
.LVL3:
.L3:
	.loc 1 21 0
	call	exit
.LVL4:
	.cfi_endproc
.LFE0:
	.size	main, .-main
.Letext0:
	.file 2 "date.h"
	.file 3 "types.h"
	.file 4 "user.h"
	.section	.note.GNU-stack,"",@progbits
