	.file	"sysproc.c"
	.text
.Ltext0:
	.globl	sys_fork
	.type	sys_fork, @function
sys_fork:
.LFB20:
	.file 1 "sysproc.c"
	.loc 1 12 0
	.cfi_startproc
	pushl	%ebp
.LCFI0:
	.cfi_def_cfa_offset 8
	.cfi_offset 5, -8
	movl	%esp, %ebp
.LCFI1:
	.cfi_def_cfa_register 5
	subl	$8, %esp
	.loc 1 13 0
	call	fork
.LVL0:
	.loc 1 14 0
	leave
.LCFI2:
	.cfi_restore 5
	.cfi_def_cfa 4, 4
	ret
	.cfi_endproc
.LFE20:
	.size	sys_fork, .-sys_fork
	.globl	sys_exit
	.type	sys_exit, @function
sys_exit:
.LFB21:
	.loc 1 18 0
	.cfi_startproc
	pushl	%ebp
.LCFI3:
	.cfi_def_cfa_offset 8
	.cfi_offset 5, -8
	movl	%esp, %ebp
.LCFI4:
	.cfi_def_cfa_register 5
	subl	$8, %esp
	.loc 1 19 0
	call	exit
.LVL1:
	.loc 1 20 0
	movl	$0, %eax
	.loc 1 21 0
	leave
.LCFI5:
	.cfi_restore 5
	.cfi_def_cfa 4, 4
	ret
	.cfi_endproc
.LFE21:
	.size	sys_exit, .-sys_exit
	.globl	sys_wait
	.type	sys_wait, @function
sys_wait:
.LFB22:
	.loc 1 25 0
	.cfi_startproc
	pushl	%ebp
.LCFI6:
	.cfi_def_cfa_offset 8
	.cfi_offset 5, -8
	movl	%esp, %ebp
.LCFI7:
	.cfi_def_cfa_register 5
	subl	$8, %esp
	.loc 1 26 0
	call	wait
.LVL2:
	.loc 1 27 0
	leave
.LCFI8:
	.cfi_restore 5
	.cfi_def_cfa 4, 4
	ret
	.cfi_endproc
.LFE22:
	.size	sys_wait, .-sys_wait
	.globl	sys_kill
	.type	sys_kill, @function
sys_kill:
.LFB23:
	.loc 1 31 0
	.cfi_startproc
	pushl	%ebp
.LCFI9:
	.cfi_def_cfa_offset 8
	.cfi_offset 5, -8
	movl	%esp, %ebp
.LCFI10:
	.cfi_def_cfa_register 5
	subl	$40, %esp
	.loc 1 34 0
	leal	-12(%ebp), %eax
	movl	%eax, 4(%esp)
	movl	$0, (%esp)
	call	argint
.LVL3:
	testl	%eax, %eax
	jns	.L8
	.loc 1 35 0
	movl	$-1, %eax
	jmp	.L10
.L8:
.LVL4:
	.loc 1 36 0
	movl	-12(%ebp), %eax
	movl	%eax, (%esp)
	call	kill
.LVL5:
.L10:
	.loc 1 37 0
	leave
.LCFI11:
	.cfi_restore 5
	.cfi_def_cfa 4, 4
	ret
	.cfi_endproc
.LFE23:
	.size	sys_kill, .-sys_kill
	.globl	sys_getpid
	.type	sys_getpid, @function
sys_getpid:
.LFB24:
	.loc 1 41 0
	.cfi_startproc
	pushl	%ebp
.LCFI12:
	.cfi_def_cfa_offset 8
	.cfi_offset 5, -8
	movl	%esp, %ebp
.LCFI13:
	.cfi_def_cfa_register 5
	.loc 1 42 0
	movl	%gs:4, %eax
	movl	16(%eax), %eax
	.loc 1 43 0
	popl	%ebp
.LCFI14:
	.cfi_restore 5
	.cfi_def_cfa 4, 4
	ret
	.cfi_endproc
.LFE24:
	.size	sys_getpid, .-sys_getpid
	.globl	sys_sbrk
	.type	sys_sbrk, @function
sys_sbrk:
.LFB25:
	.loc 1 47 0
	.cfi_startproc
	pushl	%ebp
.LCFI15:
	.cfi_def_cfa_offset 8
	.cfi_offset 5, -8
	movl	%esp, %ebp
.LCFI16:
	.cfi_def_cfa_register 5
	subl	$40, %esp
	.loc 1 51 0
	leal	-16(%ebp), %eax
	movl	%eax, 4(%esp)
	movl	$0, (%esp)
	call	argint
.LVL6:
	testl	%eax, %eax
	jns	.L14
	.loc 1 52 0
	movl	$-1, %eax
	jmp	.L17
.L14:
	.loc 1 53 0
	movl	%gs:4, %eax
	movl	(%eax), %eax
	movl	%eax, -12(%ebp)
.LVL7:
	.loc 1 54 0
	movl	-16(%ebp), %eax
.LVL8:
	movl	%eax, (%esp)
	call	growproc
.LVL9:
	testl	%eax, %eax
	jns	.L16
	.loc 1 55 0
	movl	$-1, %eax
	jmp	.L17
.L16:
	.loc 1 56 0
	movl	-12(%ebp), %eax
.LVL10:
.L17:
	.loc 1 57 0
	leave
.LCFI17:
	.cfi_restore 5
	.cfi_def_cfa 4, 4
	ret
	.cfi_endproc
.LFE25:
	.size	sys_sbrk, .-sys_sbrk
	.globl	sys_sleep
	.type	sys_sleep, @function
sys_sleep:
.LFB26:
	.loc 1 61 0
	.cfi_startproc
	pushl	%ebp
.LCFI18:
	.cfi_def_cfa_offset 8
	.cfi_offset 5, -8
	movl	%esp, %ebp
.LCFI19:
	.cfi_def_cfa_register 5
	subl	$40, %esp
	.loc 1 65 0
	leal	-16(%ebp), %eax
	movl	%eax, 4(%esp)
	movl	$0, (%esp)
	call	argint
.LVL11:
	testl	%eax, %eax
	jns	.L19
	.loc 1 66 0
	movl	$-1, %eax
	jmp	.L24
.L19:
	.loc 1 67 0
	movl	$tickslock, (%esp)
	call	acquire
.LVL12:
	.loc 1 68 0
	movl	ticks, %eax
	movl	%eax, -12(%ebp)
.LVL13:
	.loc 1 69 0
	jmp	.L21
.LVL14:
.L23:
	.loc 1 70 0
	movl	%gs:4, %eax
	movl	36(%eax), %eax
	testl	%eax, %eax
	je	.L22
	.loc 1 71 0
	movl	$tickslock, (%esp)
	call	release
.LVL15:
	.loc 1 72 0
	movl	$-1, %eax
	jmp	.L24
.L22:
	.loc 1 74 0
	movl	$tickslock, 4(%esp)
	movl	$ticks, (%esp)
	call	sleep
.LVL16:
.L21:
	.loc 1 69 0 discriminator 1
	movl	ticks, %eax
	movl	%eax, %edx
	subl	-12(%ebp), %edx
	movl	-16(%ebp), %eax
	cmpl	%eax, %edx
	jb	.L23
	.loc 1 76 0
	movl	$tickslock, (%esp)
	call	release
.LVL17:
	.loc 1 77 0
	movl	$0, %eax
.LVL18:
.L24:
	.loc 1 78 0
	leave
.LCFI20:
	.cfi_restore 5
	.cfi_def_cfa 4, 4
	ret
	.cfi_endproc
.LFE26:
	.size	sys_sleep, .-sys_sleep
	.globl	sys_uptime
	.type	sys_uptime, @function
sys_uptime:
.LFB27:
	.loc 1 84 0
	.cfi_startproc
	pushl	%ebp
.LCFI21:
	.cfi_def_cfa_offset 8
	.cfi_offset 5, -8
	movl	%esp, %ebp
.LCFI22:
	.cfi_def_cfa_register 5
	subl	$40, %esp
	.loc 1 87 0
	movl	$tickslock, (%esp)
	call	acquire
.LVL19:
	.loc 1 88 0
	movl	ticks, %eax
	movl	%eax, -12(%ebp)
.LVL20:
	.loc 1 89 0
	movl	$tickslock, (%esp)
	call	release
.LVL21:
	.loc 1 90 0
	movl	-12(%ebp), %eax
	.loc 1 91 0
	leave
.LCFI23:
	.cfi_restore 5
	.cfi_def_cfa 4, 4
	ret
	.cfi_endproc
.LFE27:
	.size	sys_uptime, .-sys_uptime
	.globl	sys_date
	.type	sys_date, @function
sys_date:
.LFB28:
	.loc 1 95 0
	.cfi_startproc
	pushl	%ebp
.LCFI24:
	.cfi_def_cfa_offset 8
	.cfi_offset 5, -8
	movl	%esp, %ebp
.LCFI25:
	.cfi_def_cfa_register 5
	subl	$40, %esp
	.loc 1 97 0
	movl	$24, 8(%esp)
	leal	-12(%ebp), %eax
	movl	%eax, 4(%esp)
	movl	$0, (%esp)
	call	argptr
.LVL22:
	testl	%eax, %eax
	jns	.L28
	.loc 1 98 0
	movl	$-1, %eax
	jmp	.L30
.L28:
.LVL23:
	.loc 1 99 0
	movl	-12(%ebp), %eax
	movl	%eax, (%esp)
	call	cmostime
.LVL24:
	.loc 1 100 0
	movl	$0, %eax
.L30:
	.loc 1 101 0
	leave
.LCFI26:
	.cfi_restore 5
	.cfi_def_cfa 4, 4
	ret
	.cfi_endproc
.LFE28:
	.size	sys_date, .-sys_date
	.globl	sys_ls_call01
	.type	sys_ls_call01, @function
sys_ls_call01:
.LFB29:
	.loc 1 104 0
	.cfi_startproc
	pushl	%ebp
.LCFI27:
	.cfi_def_cfa_offset 8
	.cfi_offset 5, -8
	movl	%esp, %ebp
.LCFI28:
	.cfi_def_cfa_register 5
	.loc 1 105 0
	movl	$1, %eax
	.loc 1 106 0
	popl	%ebp
.LCFI29:
	.cfi_restore 5
	.cfi_def_cfa 4, 4
	ret
	.cfi_endproc
.LFE29:
	.size	sys_ls_call01, .-sys_ls_call01
	.globl	sys_ls_call02
	.type	sys_ls_call02, @function
sys_ls_call02:
.LFB30:
	.loc 1 109 0
	.cfi_startproc
	pushl	%ebp
.LCFI30:
	.cfi_def_cfa_offset 8
	.cfi_offset 5, -8
	movl	%esp, %ebp
.LCFI31:
	.cfi_def_cfa_register 5
	.loc 1 110 0
	movl	$2, %eax
	.loc 1 111 0
	popl	%ebp
.LCFI32:
	.cfi_restore 5
	.cfi_def_cfa 4, 4
	ret
	.cfi_endproc
.LFE30:
	.size	sys_ls_call02, .-sys_ls_call02
	.globl	sys_ls_call03
	.type	sys_ls_call03, @function
sys_ls_call03:
.LFB31:
	.loc 1 114 0
	.cfi_startproc
	pushl	%ebp
.LCFI33:
	.cfi_def_cfa_offset 8
	.cfi_offset 5, -8
	movl	%esp, %ebp
.LCFI34:
	.cfi_def_cfa_register 5
	.loc 1 115 0
	movl	$3, %eax
	.loc 1 116 0
	popl	%ebp
.LCFI35:
	.cfi_restore 5
	.cfi_def_cfa 4, 4
	ret
	.cfi_endproc
.LFE31:
	.size	sys_ls_call03, .-sys_ls_call03
	.globl	sys_ls_call04
	.type	sys_ls_call04, @function
sys_ls_call04:
.LFB32:
	.loc 1 119 0
	.cfi_startproc
	pushl	%ebp
.LCFI36:
	.cfi_def_cfa_offset 8
	.cfi_offset 5, -8
	movl	%esp, %ebp
.LCFI37:
	.cfi_def_cfa_register 5
	.loc 1 120 0
	movl	$4, %eax
	.loc 1 121 0
	popl	%ebp
.LCFI38:
	.cfi_restore 5
	.cfi_def_cfa 4, 4
	ret
	.cfi_endproc
.LFE32:
	.size	sys_ls_call04, .-sys_ls_call04
	.globl	sys_ls_call05
	.type	sys_ls_call05, @function
sys_ls_call05:
.LFB33:
	.loc 1 124 0
	.cfi_startproc
	pushl	%ebp
.LCFI39:
	.cfi_def_cfa_offset 8
	.cfi_offset 5, -8
	movl	%esp, %ebp
.LCFI40:
	.cfi_def_cfa_register 5
	.loc 1 125 0
	movl	$5, %eax
	.loc 1 126 0
	popl	%ebp
.LCFI41:
	.cfi_restore 5
	.cfi_def_cfa 4, 4
	ret
	.cfi_endproc
.LFE33:
	.size	sys_ls_call05, .-sys_ls_call05
	.globl	sys_ls_call06
	.type	sys_ls_call06, @function
sys_ls_call06:
.LFB34:
	.loc 1 129 0
	.cfi_startproc
	pushl	%ebp
.LCFI42:
	.cfi_def_cfa_offset 8
	.cfi_offset 5, -8
	movl	%esp, %ebp
.LCFI43:
	.cfi_def_cfa_register 5
	.loc 1 130 0
	movl	$6, %eax
	.loc 1 131 0
	popl	%ebp
.LCFI44:
	.cfi_restore 5
	.cfi_def_cfa 4, 4
	ret
	.cfi_endproc
.LFE34:
	.size	sys_ls_call06, .-sys_ls_call06
	.globl	sys_ls_call07
	.type	sys_ls_call07, @function
sys_ls_call07:
.LFB35:
	.loc 1 134 0
	.cfi_startproc
	pushl	%ebp
.LCFI45:
	.cfi_def_cfa_offset 8
	.cfi_offset 5, -8
	movl	%esp, %ebp
.LCFI46:
	.cfi_def_cfa_register 5
	.loc 1 135 0
	movl	$7, %eax
	.loc 1 136 0
	popl	%ebp
.LCFI47:
	.cfi_restore 5
	.cfi_def_cfa 4, 4
	ret
	.cfi_endproc
.LFE35:
	.size	sys_ls_call07, .-sys_ls_call07
	.globl	sys_ls_call08
	.type	sys_ls_call08, @function
sys_ls_call08:
.LFB36:
	.loc 1 139 0
	.cfi_startproc
	pushl	%ebp
.LCFI48:
	.cfi_def_cfa_offset 8
	.cfi_offset 5, -8
	movl	%esp, %ebp
.LCFI49:
	.cfi_def_cfa_register 5
	.loc 1 140 0
	movl	$8, %eax
	.loc 1 141 0
	popl	%ebp
.LCFI50:
	.cfi_restore 5
	.cfi_def_cfa 4, 4
	ret
	.cfi_endproc
.LFE36:
	.size	sys_ls_call08, .-sys_ls_call08
	.globl	sys_ls_call09
	.type	sys_ls_call09, @function
sys_ls_call09:
.LFB37:
	.loc 1 144 0
	.cfi_startproc
	pushl	%ebp
.LCFI51:
	.cfi_def_cfa_offset 8
	.cfi_offset 5, -8
	movl	%esp, %ebp
.LCFI52:
	.cfi_def_cfa_register 5
	.loc 1 145 0
	movl	$9, %eax
	.loc 1 146 0
	popl	%ebp
.LCFI53:
	.cfi_restore 5
	.cfi_def_cfa 4, 4
	ret
	.cfi_endproc
.LFE37:
	.size	sys_ls_call09, .-sys_ls_call09
	.globl	sys_ls_call10
	.type	sys_ls_call10, @function
sys_ls_call10:
.LFB38:
	.loc 1 149 0
	.cfi_startproc
	pushl	%ebp
.LCFI54:
	.cfi_def_cfa_offset 8
	.cfi_offset 5, -8
	movl	%esp, %ebp
.LCFI55:
	.cfi_def_cfa_register 5
	.loc 1 150 0
	movl	$10, %eax
	.loc 1 151 0
	popl	%ebp
.LCFI56:
	.cfi_restore 5
	.cfi_def_cfa 4, 4
	ret
	.cfi_endproc
.LFE38:
	.size	sys_ls_call10, .-sys_ls_call10
	.globl	sys_ls_call11
	.type	sys_ls_call11, @function
sys_ls_call11:
.LFB39:
	.loc 1 154 0
	.cfi_startproc
	pushl	%ebp
.LCFI57:
	.cfi_def_cfa_offset 8
	.cfi_offset 5, -8
	movl	%esp, %ebp
.LCFI58:
	.cfi_def_cfa_register 5
	.loc 1 155 0
	movl	$11, %eax
	.loc 1 156 0
	popl	%ebp
.LCFI59:
	.cfi_restore 5
	.cfi_def_cfa 4, 4
	ret
	.cfi_endproc
.LFE39:
	.size	sys_ls_call11, .-sys_ls_call11
	.globl	sys_ls_call12
	.type	sys_ls_call12, @function
sys_ls_call12:
.LFB40:
	.loc 1 159 0
	.cfi_startproc
	pushl	%ebp
.LCFI60:
	.cfi_def_cfa_offset 8
	.cfi_offset 5, -8
	movl	%esp, %ebp
.LCFI61:
	.cfi_def_cfa_register 5
	.loc 1 160 0
	movl	$12, %eax
	.loc 1 161 0
	popl	%ebp
.LCFI62:
	.cfi_restore 5
	.cfi_def_cfa 4, 4
	ret
	.cfi_endproc
.LFE40:
	.size	sys_ls_call12, .-sys_ls_call12
	.globl	sys_ls_call13
	.type	sys_ls_call13, @function
sys_ls_call13:
.LFB41:
	.loc 1 164 0
	.cfi_startproc
	pushl	%ebp
.LCFI63:
	.cfi_def_cfa_offset 8
	.cfi_offset 5, -8
	movl	%esp, %ebp
.LCFI64:
	.cfi_def_cfa_register 5
	.loc 1 165 0
	movl	$13, %eax
	.loc 1 166 0
	popl	%ebp
.LCFI65:
	.cfi_restore 5
	.cfi_def_cfa 4, 4
	ret
	.cfi_endproc
.LFE41:
	.size	sys_ls_call13, .-sys_ls_call13
	.globl	sys_ls_call14
	.type	sys_ls_call14, @function
sys_ls_call14:
.LFB42:
	.loc 1 169 0
	.cfi_startproc
	pushl	%ebp
.LCFI66:
	.cfi_def_cfa_offset 8
	.cfi_offset 5, -8
	movl	%esp, %ebp
.LCFI67:
	.cfi_def_cfa_register 5
	.loc 1 170 0
	movl	$14, %eax
	.loc 1 171 0
	popl	%ebp
.LCFI68:
	.cfi_restore 5
	.cfi_def_cfa 4, 4
	ret
	.cfi_endproc
.LFE42:
	.size	sys_ls_call14, .-sys_ls_call14
	.globl	sys_ls_call15
	.type	sys_ls_call15, @function
sys_ls_call15:
.LFB43:
	.loc 1 174 0
	.cfi_startproc
	pushl	%ebp
.LCFI69:
	.cfi_def_cfa_offset 8
	.cfi_offset 5, -8
	movl	%esp, %ebp
.LCFI70:
	.cfi_def_cfa_register 5
	.loc 1 175 0
	movl	$15, %eax
	.loc 1 176 0
	popl	%ebp
.LCFI71:
	.cfi_restore 5
	.cfi_def_cfa 4, 4
	ret
	.cfi_endproc
.LFE43:
	.size	sys_ls_call15, .-sys_ls_call15
	.globl	sys_ls_call16
	.type	sys_ls_call16, @function
sys_ls_call16:
.LFB44:
	.loc 1 179 0
	.cfi_startproc
	pushl	%ebp
.LCFI72:
	.cfi_def_cfa_offset 8
	.cfi_offset 5, -8
	movl	%esp, %ebp
.LCFI73:
	.cfi_def_cfa_register 5
	.loc 1 180 0
	movl	$16, %eax
	.loc 1 181 0
	popl	%ebp
.LCFI74:
	.cfi_restore 5
	.cfi_def_cfa 4, 4
	ret
	.cfi_endproc
.LFE44:
	.size	sys_ls_call16, .-sys_ls_call16
	.globl	sys_ls_call17
	.type	sys_ls_call17, @function
sys_ls_call17:
.LFB45:
	.loc 1 184 0
	.cfi_startproc
	pushl	%ebp
.LCFI75:
	.cfi_def_cfa_offset 8
	.cfi_offset 5, -8
	movl	%esp, %ebp
.LCFI76:
	.cfi_def_cfa_register 5
	.loc 1 185 0
	movl	$17, %eax
	.loc 1 186 0
	popl	%ebp
.LCFI77:
	.cfi_restore 5
	.cfi_def_cfa 4, 4
	ret
	.cfi_endproc
.LFE45:
	.size	sys_ls_call17, .-sys_ls_call17
	.globl	sys_ls_call18
	.type	sys_ls_call18, @function
sys_ls_call18:
.LFB46:
	.loc 1 189 0
	.cfi_startproc
	pushl	%ebp
.LCFI78:
	.cfi_def_cfa_offset 8
	.cfi_offset 5, -8
	movl	%esp, %ebp
.LCFI79:
	.cfi_def_cfa_register 5
	.loc 1 190 0
	movl	$18, %eax
	.loc 1 191 0
	popl	%ebp
.LCFI80:
	.cfi_restore 5
	.cfi_def_cfa 4, 4
	ret
	.cfi_endproc
.LFE46:
	.size	sys_ls_call18, .-sys_ls_call18
	.globl	sys_ls_call19
	.type	sys_ls_call19, @function
sys_ls_call19:
.LFB47:
	.loc 1 194 0
	.cfi_startproc
	pushl	%ebp
.LCFI81:
	.cfi_def_cfa_offset 8
	.cfi_offset 5, -8
	movl	%esp, %ebp
.LCFI82:
	.cfi_def_cfa_register 5
	.loc 1 195 0
	movl	$19, %eax
	.loc 1 196 0
	popl	%ebp
.LCFI83:
	.cfi_restore 5
	.cfi_def_cfa 4, 4
	ret
	.cfi_endproc
.LFE47:
	.size	sys_ls_call19, .-sys_ls_call19
	.globl	sys_ls_call20
	.type	sys_ls_call20, @function
sys_ls_call20:
.LFB48:
	.loc 1 199 0
	.cfi_startproc
	pushl	%ebp
.LCFI84:
	.cfi_def_cfa_offset 8
	.cfi_offset 5, -8
	movl	%esp, %ebp
.LCFI85:
	.cfi_def_cfa_register 5
	.loc 1 200 0
	movl	$20, %eax
	.loc 1 201 0
	popl	%ebp
.LCFI86:
	.cfi_restore 5
	.cfi_def_cfa 4, 4
	ret
	.cfi_endproc
.LFE48:
	.size	sys_ls_call20, .-sys_ls_call20
	.globl	sys_ls_call21
	.type	sys_ls_call21, @function
sys_ls_call21:
.LFB49:
	.loc 1 204 0
	.cfi_startproc
	pushl	%ebp
.LCFI87:
	.cfi_def_cfa_offset 8
	.cfi_offset 5, -8
	movl	%esp, %ebp
.LCFI88:
	.cfi_def_cfa_register 5
	.loc 1 205 0
	movl	$21, %eax
	.loc 1 206 0
	popl	%ebp
.LCFI89:
	.cfi_restore 5
	.cfi_def_cfa 4, 4
	ret
	.cfi_endproc
.LFE49:
	.size	sys_ls_call21, .-sys_ls_call21
	.globl	sys_ls_call22
	.type	sys_ls_call22, @function
sys_ls_call22:
.LFB50:
	.loc 1 209 0
	.cfi_startproc
	pushl	%ebp
.LCFI90:
	.cfi_def_cfa_offset 8
	.cfi_offset 5, -8
	movl	%esp, %ebp
.LCFI91:
	.cfi_def_cfa_register 5
	.loc 1 210 0
	movl	$22, %eax
	.loc 1 211 0
	popl	%ebp
.LCFI92:
	.cfi_restore 5
	.cfi_def_cfa 4, 4
	ret
	.cfi_endproc
.LFE50:
	.size	sys_ls_call22, .-sys_ls_call22
	.globl	sys_ls_call23
	.type	sys_ls_call23, @function
sys_ls_call23:
.LFB51:
	.loc 1 214 0
	.cfi_startproc
	pushl	%ebp
.LCFI93:
	.cfi_def_cfa_offset 8
	.cfi_offset 5, -8
	movl	%esp, %ebp
.LCFI94:
	.cfi_def_cfa_register 5
	.loc 1 215 0
	movl	$23, %eax
	.loc 1 216 0
	popl	%ebp
.LCFI95:
	.cfi_restore 5
	.cfi_def_cfa 4, 4
	ret
	.cfi_endproc
.LFE51:
	.size	sys_ls_call23, .-sys_ls_call23
	.globl	sys_ls_call24
	.type	sys_ls_call24, @function
sys_ls_call24:
.LFB52:
	.loc 1 219 0
	.cfi_startproc
	pushl	%ebp
.LCFI96:
	.cfi_def_cfa_offset 8
	.cfi_offset 5, -8
	movl	%esp, %ebp
.LCFI97:
	.cfi_def_cfa_register 5
	.loc 1 220 0
	movl	$24, %eax
	.loc 1 221 0
	popl	%ebp
.LCFI98:
	.cfi_restore 5
	.cfi_def_cfa 4, 4
	ret
	.cfi_endproc
.LFE52:
	.size	sys_ls_call24, .-sys_ls_call24
	.globl	sys_ls_call25
	.type	sys_ls_call25, @function
sys_ls_call25:
.LFB53:
	.loc 1 224 0
	.cfi_startproc
	pushl	%ebp
.LCFI99:
	.cfi_def_cfa_offset 8
	.cfi_offset 5, -8
	movl	%esp, %ebp
.LCFI100:
	.cfi_def_cfa_register 5
	.loc 1 225 0
	movl	$25, %eax
	.loc 1 226 0
	popl	%ebp
.LCFI101:
	.cfi_restore 5
	.cfi_def_cfa 4, 4
	ret
	.cfi_endproc
.LFE53:
	.size	sys_ls_call25, .-sys_ls_call25
	.globl	sys_ls_call26
	.type	sys_ls_call26, @function
sys_ls_call26:
.LFB54:
	.loc 1 229 0
	.cfi_startproc
	pushl	%ebp
.LCFI102:
	.cfi_def_cfa_offset 8
	.cfi_offset 5, -8
	movl	%esp, %ebp
.LCFI103:
	.cfi_def_cfa_register 5
	.loc 1 230 0
	movl	$26, %eax
	.loc 1 231 0
	popl	%ebp
.LCFI104:
	.cfi_restore 5
	.cfi_def_cfa 4, 4
	ret
	.cfi_endproc
.LFE54:
	.size	sys_ls_call26, .-sys_ls_call26
	.globl	sys_ls_call27
	.type	sys_ls_call27, @function
sys_ls_call27:
.LFB55:
	.loc 1 234 0
	.cfi_startproc
	pushl	%ebp
.LCFI105:
	.cfi_def_cfa_offset 8
	.cfi_offset 5, -8
	movl	%esp, %ebp
.LCFI106:
	.cfi_def_cfa_register 5
	.loc 1 235 0
	movl	$27, %eax
	.loc 1 236 0
	popl	%ebp
.LCFI107:
	.cfi_restore 5
	.cfi_def_cfa 4, 4
	ret
	.cfi_endproc
.LFE55:
	.size	sys_ls_call27, .-sys_ls_call27
	.globl	sys_ls_call28
	.type	sys_ls_call28, @function
sys_ls_call28:
.LFB56:
	.loc 1 239 0
	.cfi_startproc
	pushl	%ebp
.LCFI108:
	.cfi_def_cfa_offset 8
	.cfi_offset 5, -8
	movl	%esp, %ebp
.LCFI109:
	.cfi_def_cfa_register 5
	.loc 1 240 0
	movl	$28, %eax
	.loc 1 241 0
	popl	%ebp
.LCFI110:
	.cfi_restore 5
	.cfi_def_cfa 4, 4
	ret
	.cfi_endproc
.LFE56:
	.size	sys_ls_call28, .-sys_ls_call28
	.globl	sys_ls_call29
	.type	sys_ls_call29, @function
sys_ls_call29:
.LFB57:
	.loc 1 244 0
	.cfi_startproc
	pushl	%ebp
.LCFI111:
	.cfi_def_cfa_offset 8
	.cfi_offset 5, -8
	movl	%esp, %ebp
.LCFI112:
	.cfi_def_cfa_register 5
	.loc 1 245 0
	movl	$29, %eax
	.loc 1 246 0
	popl	%ebp
.LCFI113:
	.cfi_restore 5
	.cfi_def_cfa 4, 4
	ret
	.cfi_endproc
.LFE57:
	.size	sys_ls_call29, .-sys_ls_call29
	.globl	sys_ls_call30
	.type	sys_ls_call30, @function
sys_ls_call30:
.LFB58:
	.loc 1 249 0
	.cfi_startproc
	pushl	%ebp
.LCFI114:
	.cfi_def_cfa_offset 8
	.cfi_offset 5, -8
	movl	%esp, %ebp
.LCFI115:
	.cfi_def_cfa_register 5
	.loc 1 250 0
	movl	$30, %eax
	.loc 1 251 0
	popl	%ebp
.LCFI116:
	.cfi_restore 5
	.cfi_def_cfa 4, 4
	ret
	.cfi_endproc
.LFE58:
	.size	sys_ls_call30, .-sys_ls_call30
.Letext0:
	.file 2 "types.h"
	.file 3 "x86.h"
	.file 4 "date.h"
	.file 5 "proc.h"
	.file 6 "defs.h"
	.section	.note.GNU-stack,"",@progbits
